target datalayout = "e-m:e-p270:32:32-p271:32:32-p272:64:64-i64:64-i128:128-f80:128-n8:16:32:64-S128"
target triple = "x86_64-pc-linux-gnu"

%struct.GetBitContext = type { ptr, ptr, i32, i32, i32 }

@ff_golomb_vlc_len = external constant [512 x i8], align 16
@ff_ue_golomb_vlc_code = external constant [512 x i8], align 16

; Function Attrs: alwaysinline nounwind willreturn memory(none) uwtable
define internal i32 @av_bswap32(i32 noundef %0) #7 {
  %2 = alloca i32, align 4
  store i32 %0, ptr %2, align 4, !tbaa !79
  %3 = load i32, ptr %2, align 4, !tbaa !79
  %4 = shl i32 %3, 8
  %5 = and i32 %4, 65280
  %6 = load i32, ptr %2, align 4, !tbaa !79
  %7 = lshr i32 %6, 8
  %8 = and i32 %7, 255
  %9 = or i32 %5, %8
  %10 = shl i32 %9, 16
  %11 = load i32, ptr %2, align 4, !tbaa !79
  %12 = lshr i32 %11, 16
  %13 = shl i32 %12, 8
  %14 = and i32 %13, 65280
  %15 = load i32, ptr %2, align 4, !tbaa !79
  %16 = lshr i32 %15, 16
  %17 = lshr i32 %16, 8
  %18 = and i32 %17, 255
  %19 = or i32 %14, %18
  %20 = or i32 %10, %19
  ret i32 %20
}

; Function Attrs: inlinehint nounwind uwtable
define internal i32 @get_ue_golomb_31(ptr noundef %0) #5 {
  %2 = alloca ptr, align 8
  %3 = alloca i32, align 4
  %4 = alloca i32, align 4
  %5 = alloca i32, align 4
  %6 = alloca i32, align 4
  store ptr %0, ptr %2, align 8, !tbaa !313
  call void @llvm.lifetime.start.p0(i64 4, ptr %3) #10
  call void @llvm.lifetime.start.p0(i64 4, ptr %4) #10
  %7 = load ptr, ptr %2, align 8, !tbaa !313
  %8 = getelementptr inbounds nuw %struct.GetBitContext, ptr %7, i32 0, i32 2
  %9 = load i32, ptr %8, align 8, !tbaa !315
  store i32 %9, ptr %4, align 4, !tbaa !79
  call void @llvm.lifetime.start.p0(i64 4, ptr %5) #10
  call void @llvm.lifetime.start.p0(i64 4, ptr %6) #10
  %10 = load ptr, ptr %2, align 8, !tbaa !313
  %11 = getelementptr inbounds nuw %struct.GetBitContext, ptr %10, i32 0, i32 4
  %12 = load i32, ptr %11, align 8, !tbaa !316
  store i32 %12, ptr %6, align 4, !tbaa !79
  %13 = load ptr, ptr %2, align 8, !tbaa !313
  %14 = getelementptr inbounds nuw %struct.GetBitContext, ptr %13, i32 0, i32 0
  %15 = load ptr, ptr %14, align 8, !tbaa !317
  %16 = load i32, ptr %4, align 4, !tbaa !79
  %17 = lshr i32 %16, 3
  %18 = zext i32 %17 to i64
  %19 = getelementptr inbounds nuw i8, ptr %15, i64 %18
  %20 = load i32, ptr %19, align 1, !tbaa !186
  %21 = call i32 @av_bswap32(i32 noundef %20) #12
  %22 = load i32, ptr %4, align 4, !tbaa !79
  %23 = and i32 %22, 7
  %24 = shl i32 %21, %23
  %25 = lshr i32 %24, 0
  store i32 %25, ptr %5, align 4, !tbaa !79
  %26 = load i32, ptr %5, align 4, !tbaa !79
  store i32 %26, ptr %3, align 4, !tbaa !79
  %27 = load i32, ptr %3, align 4, !tbaa !79
  %28 = lshr i32 %27, 23
  store i32 %28, ptr %3, align 4, !tbaa !79
  %29 = load i32, ptr %6, align 4, !tbaa !79
  %30 = load i32, ptr %4, align 4, !tbaa !79
  %31 = load i32, ptr %3, align 4, !tbaa !79
  %32 = zext i32 %31 to i64
  %33 = getelementptr inbounds nuw [512 x i8], ptr @ff_golomb_vlc_len, i64 0, i64 %32
  %34 = load i8, ptr %33, align 1, !tbaa !186
  %35 = zext i8 %34 to i32
  %36 = add i32 %30, %35
  %37 = icmp ugt i32 %29, %36
  br i1 %37, label %38, label %46

38:                                               ; preds = %1
  %39 = load i32, ptr %4, align 4, !tbaa !79
  %40 = load i32, ptr %3, align 4, !tbaa !79
  %41 = zext i32 %40 to i64
  %42 = getelementptr inbounds nuw [512 x i8], ptr @ff_golomb_vlc_len, i64 0, i64 %41
  %43 = load i8, ptr %42, align 1, !tbaa !186
  %44 = zext i8 %43 to i32
  %45 = add i32 %39, %44
  br label %48

46:                                               ; preds = %1
  %47 = load i32, ptr %6, align 4, !tbaa !79
  br label %48

48:                                               ; preds = %46, %38
  %49 = phi i32 [ %45, %38 ], [ %47, %46 ]
  store i32 %49, ptr %4, align 4, !tbaa !79
  %50 = load i32, ptr %4, align 4, !tbaa !79
  %51 = load ptr, ptr %2, align 8, !tbaa !313
  %52 = getelementptr inbounds nuw %struct.GetBitContext, ptr %51, i32 0, i32 2
  store i32 %50, ptr %52, align 8, !tbaa !315
  %53 = load i32, ptr %3, align 4, !tbaa !79
  %54 = zext i32 %53 to i64
  %55 = getelementptr inbounds nuw [512 x i8], ptr @ff_ue_golomb_vlc_code, i64 0, i64 %54
  %56 = load i8, ptr %55, align 1, !tbaa !186
  %57 = zext i8 %56 to i32
  call void @llvm.lifetime.end.p0(i64 4, ptr %6) #10
  call void @llvm.lifetime.end.p0(i64 4, ptr %5) #10
  call void @llvm.lifetime.end.p0(i64 4, ptr %4) #10
  call void @llvm.lifetime.end.p0(i64 4, ptr %3) #10
  ret i32 %57
}